; Function Attrs: mustprogress uwtable
define void @_ZN3nix13readDirectoryERKNSt7__cxx1112basic_stringIcSt11char_traitsIcESaIcEEE(ptr dead_on_unwind noalias writable sret(%"class.std::vector.27") align 8 %0, ptr noundef nonnull align 8 dereferenceable(32) %1) local_unnamed_addr #2 personality ptr @__gxx_personality_v0 {
  %3 = load ptr, ptr %1, align 8
  %4 = tail call ptr @opendir(ptr noundef %3)
  %.not = icmp eq ptr %4, null
  br i1 %.not, label %5, label %10

5:                                                ; preds = %2
  %6 = tail call ptr @__cxa_allocate_exception(i64 384) #29
  %7 = tail call ptr @__errno_location() #31
  %8 = load i32, ptr %7, align 4
  invoke void @_ZN3nix8SysErrorC2IJA24_cNSt7__cxx1112basic_stringIcSt11char_traitsIcESaIcEEEEEEiDpRKT_(ptr noundef nonnull align 8 dereferenceable(380) %6, i32 noundef %8, ptr noundef nonnull align 1 dereferenceable(24) @.str.13, ptr noundef nonnull align 8 dereferenceable(32) %1)
          to label %_ZN3nix8SysErrorC2IJA24_cNSt7__cxx1112basic_stringIcSt11char_traitsIcESaIcEEEEEEDpRKT_.exit unwind label %.thread

_ZN3nix8SysErrorC2IJA24_cNSt7__cxx1112basic_stringIcSt11char_traitsIcESaIcEEEEEEDpRKT_.exit: ; preds = %5
  tail call void @__cxa_throw(ptr nonnull %6, ptr nonnull @_ZTIN3nix8SysErrorE, ptr nonnull @_ZN3nix8SysErrorD2Ev) #32
  unreachable

.thread:                                          ; preds = %5
  %9 = landingpad { ptr, i32 }
          cleanup
  tail call void @__cxa_free_exception(ptr %6) #29
  br label %_ZNSt10unique_ptrI11__dirstreamN3nix10DIRDeleterEED2Ev.exit7

10:                                               ; preds = %2
  invoke void @_ZN3nix13readDirectoryEP11__dirstreamRKNSt7__cxx1112basic_stringIcSt11char_traitsIcESaIcEEE(ptr dead_on_unwind writable sret(%"class.std::vector.27") align 8 %0, ptr noundef nonnull %4, ptr noundef nonnull align 8 dereferenceable(32) %1)
          to label %_ZNSt10unique_ptrI11__dirstreamN3nix10DIRDeleterEED2Ev.exit unwind label %12

_ZNSt10unique_ptrI11__dirstreamN3nix10DIRDeleterEED2Ev.exit: ; preds = %10
  %11 = tail call i32 @closedir(ptr noundef nonnull %4)
  ret void

12:                                               ; preds = %10
  %13 = landingpad { ptr, i32 }
          cleanup
  %14 = tail call i32 @closedir(ptr noundef nonnull %4)
  br label %_ZNSt10unique_ptrI11__dirstreamN3nix10DIRDeleterEED2Ev.exit7

_ZNSt10unique_ptrI11__dirstreamN3nix10DIRDeleterEED2Ev.exit7: ; preds = %.thread, %12
  %.pn13 = phi { ptr, i32 } [ %9, %.thread ], [ %13, %12 ]
  resume { ptr, i32 } %.pn13
}